target datalayout = "e-m:e-p270:32:32-p271:32:32-p272:64:64-i64:64-i128:128-f80:128-n8:16:32:64-S128"
target triple = "x86_64-pc-linux-gnu"

%struct.LWLock = type { i16, %struct.pg_atomic_uint32, %struct.proclist_head }
%struct.pg_atomic_uint32 = type { i32 }
%struct.proclist_head = type { i32, i32 }
%struct.dlist_head = type { %struct.dlist_node }
%struct.dlist_node = type { ptr, ptr }
%struct.SERIALIZABLEXACT = type { %struct.VirtualTransactionId, i64, i64, %union.anon, %struct.dlist_head, %struct.dlist_head, %struct.dlist_head, %struct.dlist_node, %struct.dlist_node, %struct.LWLock, %struct.dlist_head, i32, i32, i32, i32, i32, i32 }
%struct.VirtualTransactionId = type { i32, i32 }
%union.anon = type { i64 }
%struct.RWConflictData = type { %struct.dlist_node, %struct.dlist_node, ptr, ptr }
%struct.dlist_iter = type { ptr, ptr }

; Function Attrs: inlinehint nounwind uwtable
define internal zeroext i1 @dlist_is_empty(ptr noundef %0) #3 {
  %2 = alloca ptr, align 8
  store ptr %0, ptr %2, align 8
  %3 = load ptr, ptr %2, align 8
  %4 = getelementptr inbounds nuw %struct.dlist_head, ptr %3, i32 0, i32 0
  %5 = getelementptr inbounds nuw %struct.dlist_node, ptr %4, i32 0, i32 1
  %6 = load ptr, ptr %5, align 8
  %7 = icmp eq ptr %6, null
  br i1 %7, label %16, label %8

8:                                                ; preds = %1
  %9 = load ptr, ptr %2, align 8
  %10 = getelementptr inbounds nuw %struct.dlist_head, ptr %9, i32 0, i32 0
  %11 = getelementptr inbounds nuw %struct.dlist_node, ptr %10, i32 0, i32 1
  %12 = load ptr, ptr %11, align 8
  %13 = load ptr, ptr %2, align 8
  %14 = getelementptr inbounds nuw %struct.dlist_head, ptr %13, i32 0, i32 0
  %15 = icmp eq ptr %12, %14
  br label %16

16:                                               ; preds = %8, %1
  %17 = phi i1 [ true, %1 ], [ %15, %8 ]
  ret i1 %17
}

; Function Attrs: nounwind uwtable
define internal zeroext i1 @RWConflictExists(ptr noundef %0, ptr noundef %1) #0 {
  %3 = alloca i1, align 1
  %4 = alloca ptr, align 8
  %5 = alloca ptr, align 8
  %6 = alloca %struct.dlist_iter, align 8
  %7 = alloca i32, align 4
  %8 = alloca i32, align 4
  %9 = alloca i32, align 4
  %10 = alloca i32, align 4
  %11 = alloca ptr, align 8
  %12 = alloca i32, align 4
  %13 = alloca i32, align 4
  store ptr %0, ptr %4, align 8
  store ptr %1, ptr %5, align 8
  call void @llvm.lifetime.start.p0(i64 16, ptr %6) #10
  %14 = load ptr, ptr %4, align 8
  %15 = getelementptr inbounds nuw %struct.SERIALIZABLEXACT, ptr %14, i32 0, i32 14
  %16 = load i32, ptr %15, align 4
  %17 = and i32 %16, 8
  %18 = icmp ne i32 %17, 0
  br i1 %18, label %33, label %19

19:                                               ; preds = %2
  %20 = load ptr, ptr %5, align 8
  %21 = getelementptr inbounds nuw %struct.SERIALIZABLEXACT, ptr %20, i32 0, i32 14
  %22 = load i32, ptr %21, align 4
  %23 = and i32 %22, 8
  %24 = icmp ne i32 %23, 0
  br i1 %24, label %33, label %25

25:                                               ; preds = %19
  %26 = load ptr, ptr %4, align 8
  %27 = getelementptr inbounds nuw %struct.SERIALIZABLEXACT, ptr %26, i32 0, i32 4
  %28 = call zeroext i1 @dlist_is_empty(ptr noundef %27)
  br i1 %28, label %33, label %29

29:                                               ; preds = %25
  %30 = load ptr, ptr %5, align 8
  %31 = getelementptr inbounds nuw %struct.SERIALIZABLEXACT, ptr %30, i32 0, i32 5
  %32 = call zeroext i1 @dlist_is_empty(ptr noundef %31)
  br i1 %32, label %33, label %34

33:                                               ; preds = %29, %25, %19, %2
  store i1 false, ptr %3, align 1
  store i32 1, ptr %7, align 4
  br label %97

34:                                               ; preds = %29
  br label %35

35:                                               ; preds = %34
  br label %36

36:                                               ; preds = %35
  br label %37

37:                                               ; preds = %36
  store i32 1, ptr %8, align 4
  br label %38

38:                                               ; preds = %37
  br label %39

39:                                               ; preds = %38
  br label %40

40:                                               ; preds = %39
  store i32 1, ptr %9, align 4
  br label %41

41:                                               ; preds = %40
  br label %42

42:                                               ; preds = %41
  br label %43

43:                                               ; preds = %42
  store i32 1, ptr %10, align 4
  %44 = load ptr, ptr %4, align 8
  %45 = getelementptr inbounds nuw %struct.SERIALIZABLEXACT, ptr %44, i32 0, i32 4
  %46 = getelementptr inbounds nuw %struct.dlist_head, ptr %45, i32 0, i32 0
  %47 = getelementptr inbounds nuw %struct.dlist_iter, ptr %6, i32 0, i32 1
  store ptr %46, ptr %47, align 8
  %48 = getelementptr inbounds nuw %struct.dlist_iter, ptr %6, i32 0, i32 1
  %49 = load ptr, ptr %48, align 8
  %50 = getelementptr inbounds nuw %struct.dlist_node, ptr %49, i32 0, i32 1
  %51 = load ptr, ptr %50, align 8
  %52 = icmp ne ptr %51, null
  br i1 %52, label %53, label %58

53:                                               ; preds = %43
  %54 = getelementptr inbounds nuw %struct.dlist_iter, ptr %6, i32 0, i32 1
  %55 = load ptr, ptr %54, align 8
  %56 = getelementptr inbounds nuw %struct.dlist_node, ptr %55, i32 0, i32 1
  %57 = load ptr, ptr %56, align 8
  br label %61

58:                                               ; preds = %43
  %59 = getelementptr inbounds nuw %struct.dlist_iter, ptr %6, i32 0, i32 1
  %60 = load ptr, ptr %59, align 8
  br label %61

61:                                               ; preds = %58, %53
  %62 = phi ptr [ %57, %53 ], [ %60, %58 ]
  %63 = getelementptr inbounds nuw %struct.dlist_iter, ptr %6, i32 0, i32 0
  store ptr %62, ptr %63, align 8
  br label %64

64:                                               ; preds = %90, %61
  %65 = getelementptr inbounds nuw %struct.dlist_iter, ptr %6, i32 0, i32 0
  %66 = load ptr, ptr %65, align 8
  %67 = getelementptr inbounds nuw %struct.dlist_iter, ptr %6, i32 0, i32 1
  %68 = load ptr, ptr %67, align 8
  %69 = icmp ne ptr %66, %68
  br i1 %69, label %70, label %96

70:                                               ; preds = %64
  call void @llvm.lifetime.start.p0(i64 8, ptr %11) #10
  br label %71

71:                                               ; preds = %70
  br label %72

72:                                               ; preds = %71
  br label %73

73:                                               ; preds = %72
  store i32 1, ptr %12, align 4
  br label %74

74:                                               ; preds = %73
  br label %75

75:                                               ; preds = %74
  br label %76

76:                                               ; preds = %75
  store i32 1, ptr %13, align 4
  %77 = getelementptr inbounds nuw %struct.dlist_iter, ptr %6, i32 0, i32 0
  %78 = load ptr, ptr %77, align 8
  %79 = getelementptr inbounds i8, ptr %78, i64 0
  store ptr %79, ptr %11, align 8
  %80 = load ptr, ptr %11, align 8
  %81 = getelementptr inbounds nuw %struct.RWConflictData, ptr %80, i32 0, i32 3
  %82 = load ptr, ptr %81, align 8
  %83 = load ptr, ptr %5, align 8
  %84 = icmp eq ptr %82, %83
  br i1 %84, label %85, label %86

85:                                               ; preds = %76
  store i1 true, ptr %3, align 1
  store i32 1, ptr %7, align 4
  br label %87

86:                                               ; preds = %76
  store i32 0, ptr %7, align 4
  br label %87

87:                                               ; preds = %86, %85
  call void @llvm.lifetime.end.p0(i64 8, ptr %11) #10
  %88 = load i32, ptr %7, align 4
  switch i32 %88, label %97 [
    i32 0, label %89
  ]

89:                                               ; preds = %87
  br label %90

90:                                               ; preds = %89
  %91 = getelementptr inbounds nuw %struct.dlist_iter, ptr %6, i32 0, i32 0
  %92 = load ptr, ptr %91, align 8
  %93 = getelementptr inbounds nuw %struct.dlist_node, ptr %92, i32 0, i32 1
  %94 = load ptr, ptr %93, align 8
  %95 = getelementptr inbounds nuw %struct.dlist_iter, ptr %6, i32 0, i32 0
  store ptr %94, ptr %95, align 8
  br label %64, !llvm.loop !33

96:                                               ; preds = %64
  store i1 false, ptr %3, align 1
  store i32 1, ptr %7, align 4
  br label %97

97:                                               ; preds = %96, %87, %33
  call void @llvm.lifetime.end.p0(i64 16, ptr %6) #10
  %98 = load i1, ptr %3, align 1
  ret i1 %98
}