; Function Attrs: nofree norecurse nosync nounwind memory(read, inaccessiblemem: none) uwtable
define internal fastcc noundef zeroext i1 @RWConflictExists(ptr noundef readonly captures(address) %0, ptr noundef readonly captures(address) %1) unnamed_addr #7 {
  %3 = getelementptr inbounds nuw i8, ptr %0, i64 156
  %4 = load i32, ptr %3, align 4
  %5 = and i32 %4, 8
  %.not = icmp eq i32 %5, 0
  br i1 %.not, label %6, label %.loopexit

6:                                                ; preds = %2
  %7 = getelementptr inbounds nuw i8, ptr %1, i64 156
  %8 = load i32, ptr %7, align 4
  %9 = and i32 %8, 8
  %.not15 = icmp eq i32 %9, 0
  br i1 %.not15, label %10, label %.loopexit

10:                                               ; preds = %6
  %11 = getelementptr inbounds nuw i8, ptr %0, i64 32
  %12 = getelementptr inbounds nuw i8, ptr %0, i64 40
  %13 = load ptr, ptr %12, align 8
  %14 = icmp eq ptr %13, null
  %15 = icmp eq ptr %13, %11
  %spec.select.i = or i1 %14, %15
  br i1 %spec.select.i, label %.loopexit, label %16

16:                                               ; preds = %10
  %17 = getelementptr inbounds nuw i8, ptr %1, i64 48
  %18 = getelementptr inbounds nuw i8, ptr %1, i64 56
  %19 = load ptr, ptr %18, align 8
  %20 = icmp eq ptr %19, null
  %21 = icmp eq ptr %19, %17
  %spec.select.i19 = or i1 %20, %21
  br i1 %spec.select.i19, label %.loopexit, label %.lr.ph

.lr.ph:                                           ; preds = %16, %24
  %.sroa.0.021 = phi ptr [ %26, %24 ], [ %13, %16 ]
  %22 = getelementptr inbounds nuw i8, ptr %.sroa.0.021, i64 40
  %23 = load ptr, ptr %22, align 8
  %.not18 = icmp eq ptr %23, %1
  br i1 %.not18, label %.loopexit, label %24

24:                                               ; preds = %.lr.ph
  %25 = getelementptr inbounds nuw i8, ptr %.sroa.0.021, i64 8
  %26 = load ptr, ptr %25, align 8
  %.not17 = icmp eq ptr %26, %11
  br i1 %.not17, label %.loopexit, label %.lr.ph, !llvm.loop !39

.loopexit:                                        ; preds = %.lr.ph, %24, %2, %6, %10, %16
  %.0 = phi i1 [ false, %16 ], [ false, %10 ], [ false, %6 ], [ false, %2 ], [ %.not18, %24 ], [ %.not18, %.lr.ph ]
  ret i1 %.0
}